target datalayout = "e-m:e-p270:32:32-p271:32:32-p272:64:64-i64:64-i128:128-f80:128-n8:16:32:64-S128"
target triple = "x86_64-pc-linux-gnu"

%struct.expert_field = type { i32, i32 }

@hf_nan_attr_cluster_anchor_master_rank = internal global i32 0, align 4
@hf_nan_attr_cluster_hop_count = internal global i32 0, align 4
@hf_nan_attr_cluster_beacon_transmission_time = internal global i32 0, align 4
@ett_cluster_anchor_master_info = internal global i32 0, align 4
@ei_nan_elem_len_invalid = internal global %struct.expert_field zeroinitializer, align 4
@.str.721 = private unnamed_addr constant [26 x i8] c"Anchor Master Information\00", align 1

; Function Attrs: null_pointer_is_valid sspstrong uwtable
define internal void @dissect_attr_cluster(ptr noundef %0, ptr noundef %1, i32 noundef %2, i16 noundef zeroext %3, ptr noundef %4) #0 {
  %6 = alloca ptr, align 8
  %7 = alloca ptr, align 8
  %8 = alloca i32, align 4
  %9 = alloca i16, align 2
  %10 = alloca ptr, align 8
  %11 = alloca ptr, align 8
  store ptr %0, ptr %6, align 8
  store ptr %1, ptr %7, align 8
  store i32 %2, ptr %8, align 4
  store i16 %3, ptr %9, align 2
  store ptr %4, ptr %10, align 8
  %12 = load i16, ptr %9, align 2
  %13 = zext i16 %12 to i32
  %14 = icmp ne i32 %13, 13
  br i1 %14, label %15, label %19

15:                                               ; preds = %5
  %16 = load ptr, ptr %10, align 8
  %17 = load ptr, ptr %6, align 8
  %18 = call ptr @expert_add_info(ptr noundef %16, ptr noundef %17, ptr noundef @ei_nan_elem_len_invalid)
  br label %44

19:                                               ; preds = %5
  call void @llvm.lifetime.start.p0(i64 8, ptr %11) #5
  %20 = load ptr, ptr %6, align 8
  %21 = load ptr, ptr %7, align 8
  %22 = load i32, ptr %8, align 4
  %23 = add i32 %22, 3
  %24 = load i32, ptr @ett_cluster_anchor_master_info, align 4
  %25 = call ptr @proto_tree_add_subtree(ptr noundef %20, ptr noundef %21, i32 noundef %23, i32 noundef 13, i32 noundef %24, ptr noundef null, ptr noundef @.str.721)
  store ptr %25, ptr %11, align 8
  %26 = load ptr, ptr %11, align 8
  %27 = load i32, ptr @hf_nan_attr_cluster_anchor_master_rank, align 4
  %28 = load ptr, ptr %7, align 8
  %29 = load i32, ptr %8, align 4
  %30 = add i32 %29, 3
  %31 = call ptr @proto_tree_add_item(ptr noundef %26, i32 noundef %27, ptr noundef %28, i32 noundef %30, i32 noundef 8, i32 noundef 0)
  %32 = load ptr, ptr %11, align 8
  %33 = load i32, ptr @hf_nan_attr_cluster_hop_count, align 4
  %34 = load ptr, ptr %7, align 8
  %35 = load i32, ptr %8, align 4
  %36 = add i32 %35, 11
  %37 = call ptr @proto_tree_add_item(ptr noundef %32, i32 noundef %33, ptr noundef %34, i32 noundef %36, i32 noundef 1, i32 noundef 0)
  %38 = load ptr, ptr %11, align 8
  %39 = load i32, ptr @hf_nan_attr_cluster_beacon_transmission_time, align 4
  %40 = load ptr, ptr %7, align 8
  %41 = load i32, ptr %8, align 4
  %42 = add i32 %41, 12
  %43 = call ptr @proto_tree_add_item(ptr noundef %38, i32 noundef %39, ptr noundef %40, i32 noundef %42, i32 noundef 4, i32 noundef 0)
  call void @llvm.lifetime.end.p0(i64 8, ptr %11) #5
  br label %44

44:                                               ; preds = %19, %15
  ret void
}