; Function Attrs: null_pointer_is_valid sspstrong uwtable
define internal fastcc void @dissect_attr_cluster(ptr noundef %0, ptr noundef %1, i32 noundef %2, i16 noundef zeroext %3, ptr noundef %4) unnamed_addr #0 {
  %.not = icmp eq i16 %3, 13
  br i1 %.not, label %8, label %6

6:                                                ; preds = %5
  %7 = tail call ptr @expert_add_info(ptr noundef %4, ptr noundef %0, ptr noundef nonnull @ei_nan_elem_len_invalid)
  br label %20

8:                                                ; preds = %5
  %9 = add i32 %2, 3
  %10 = load i32, ptr @ett_cluster_anchor_master_info, align 4
  %11 = tail call ptr @proto_tree_add_subtree(ptr noundef %0, ptr noundef %1, i32 noundef %9, i32 noundef 13, i32 noundef %10, ptr noundef null, ptr noundef nonnull @.str.721)
  %12 = load i32, ptr @hf_nan_attr_cluster_anchor_master_rank, align 4
  %13 = tail call ptr @proto_tree_add_item(ptr noundef %11, i32 noundef %12, ptr noundef %1, i32 noundef %9, i32 noundef 8, i32 noundef 0)
  %14 = load i32, ptr @hf_nan_attr_cluster_hop_count, align 4
  %15 = add i32 %2, 11
  %16 = tail call ptr @proto_tree_add_item(ptr noundef %11, i32 noundef %14, ptr noundef %1, i32 noundef %15, i32 noundef 1, i32 noundef 0)
  %17 = load i32, ptr @hf_nan_attr_cluster_beacon_transmission_time, align 4
  %18 = add i32 %2, 12
  %19 = tail call ptr @proto_tree_add_item(ptr noundef %11, i32 noundef %17, ptr noundef %1, i32 noundef %18, i32 noundef 4, i32 noundef 0)
  br label %20

20:                                               ; preds = %8, %6
  ret void
}